; Function Attrs: mustprogress nounwind uwtable
define hidden void @_ZN5ceres8internal20SubsetPreconditionerD0Ev(ptr noundef nonnull align 8 dereferenceable(104) %0) unnamed_addr #3 align 2 personality ptr @__gxx_personality_v0 {
  store ptr getelementptr inbounds ({ [16 x ptr] }, ptr @_ZTVN5ceres8internal20SubsetPreconditionerE, i64 0, i32 0, i64 2), ptr %0, align 8
  %2 = getelementptr inbounds i8, ptr %0, i64 96
  %3 = load ptr, ptr %2, align 8
  %.not.i.i = icmp eq ptr %3, null
  br i1 %.not.i.i, label %_ZNSt10unique_ptrIN5ceres8internal20InnerProductComputerESt14default_deleteIS2_EED2Ev.exit.i, label %4

4:                                                ; preds = %1
  %5 = getelementptr inbounds i8, ptr %3, i64 24
  %6 = load ptr, ptr %5, align 8
  %.not.i.i.i.i.i.i.i = icmp eq ptr %6, null
  br i1 %.not.i.i.i.i.i.i.i, label %_ZNSt6vectorIiSaIiEED2Ev.exit.i.i.i.i, label %7

7:                                                ; preds = %4
  tail call void @_ZdlPv(ptr noundef nonnull %6) #11
  br label %_ZNSt6vectorIiSaIiEED2Ev.exit.i.i.i.i

_ZNSt6vectorIiSaIiEED2Ev.exit.i.i.i.i:            ; preds = %7, %4
  %8 = getelementptr inbounds i8, ptr %3, i64 16
  %9 = load ptr, ptr %8, align 8
  %.not.i.i.i.i.i = icmp eq ptr %9, null
  br i1 %.not.i.i.i.i.i, label %_ZNKSt14default_deleteIN5ceres8internal20InnerProductComputerEEclEPS2_.exit.i.i, label %_ZNKSt14default_deleteIN5ceres8internal25CompressedRowSparseMatrixEEclEPS2_.exit.i.i.i.i.i

_ZNKSt14default_deleteIN5ceres8internal25CompressedRowSparseMatrixEEclEPS2_.exit.i.i.i.i.i: ; preds = %_ZNSt6vectorIiSaIiEED2Ev.exit.i.i.i.i
  %10 = load ptr, ptr %9, align 8
  %11 = getelementptr inbounds i8, ptr %10, i64 8
  %12 = load ptr, ptr %11, align 8
  tail call void %12(ptr noundef nonnull align 8 dereferenceable(144) %9) #9
  br label %_ZNKSt14default_deleteIN5ceres8internal20InnerProductComputerEEclEPS2_.exit.i.i

_ZNKSt14default_deleteIN5ceres8internal20InnerProductComputerEEclEPS2_.exit.i.i: ; preds = %_ZNKSt14default_deleteIN5ceres8internal25CompressedRowSparseMatrixEEclEPS2_.exit.i.i.i.i.i, %_ZNSt6vectorIiSaIiEED2Ev.exit.i.i.i.i
  tail call void @_ZdlPv(ptr noundef nonnull %3) #11
  br label %_ZNSt10unique_ptrIN5ceres8internal20InnerProductComputerESt14default_deleteIS2_EED2Ev.exit.i

_ZNSt10unique_ptrIN5ceres8internal20InnerProductComputerESt14default_deleteIS2_EED2Ev.exit.i: ; preds = %_ZNKSt14default_deleteIN5ceres8internal20InnerProductComputerEEclEPS2_.exit.i.i, %1
  store ptr null, ptr %2, align 8
  %13 = getelementptr inbounds i8, ptr %0, i64 88
  %14 = load ptr, ptr %13, align 8
  %.not.i1.i = icmp eq ptr %14, null
  br i1 %.not.i1.i, label %_ZNSt10unique_ptrIN5ceres8internal14SparseCholeskyESt14default_deleteIS2_EED2Ev.exit.i, label %_ZNKSt14default_deleteIN5ceres8internal14SparseCholeskyEEclEPS2_.exit.i.i

_ZNKSt14default_deleteIN5ceres8internal14SparseCholeskyEEclEPS2_.exit.i.i: ; preds = %_ZNSt10unique_ptrIN5ceres8internal20InnerProductComputerESt14default_deleteIS2_EED2Ev.exit.i
  %15 = load ptr, ptr %14, align 8
  %16 = getelementptr inbounds i8, ptr %15, i64 8
  %17 = load ptr, ptr %16, align 8
  tail call void %17(ptr noundef nonnull align 8 dereferenceable(8) %14) #9
  br label %_ZNSt10unique_ptrIN5ceres8internal14SparseCholeskyESt14default_deleteIS2_EED2Ev.exit.i

_ZNSt10unique_ptrIN5ceres8internal14SparseCholeskyESt14default_deleteIS2_EED2Ev.exit.i: ; preds = %_ZNKSt14default_deleteIN5ceres8internal14SparseCholeskyEEclEPS2_.exit.i.i, %_ZNSt10unique_ptrIN5ceres8internal20InnerProductComputerESt14default_deleteIS2_EED2Ev.exit.i
  store ptr null, ptr %13, align 8
  %18 = getelementptr inbounds i8, ptr %0, i64 32
  %19 = load ptr, ptr %18, align 8
  %.not.i.i.i.i2.i = icmp eq ptr %19, null
  br i1 %.not.i.i.i.i2.i, label %_ZN5ceres8internal20SubsetPreconditionerD2Ev.exit, label %20

20:                                               ; preds = %_ZNSt10unique_ptrIN5ceres8internal14SparseCholeskyESt14default_deleteIS2_EED2Ev.exit.i
  tail call void @_ZdlPv(ptr noundef nonnull %19) #11
  br label %_ZN5ceres8internal20SubsetPreconditionerD2Ev.exit

_ZN5ceres8internal20SubsetPreconditionerD2Ev.exit: ; preds = %_ZNSt10unique_ptrIN5ceres8internal14SparseCholeskyESt14default_deleteIS2_EED2Ev.exit.i, %20
  tail call void @_ZN5ceres8internal14PreconditionerD2Ev(ptr noundef nonnull align 8 dereferenceable(8) %0) #9
  tail call void @_ZdlPv(ptr noundef nonnull %0) #11
  ret void
}